target datalayout = "e-m:e-p270:32:32-p271:32:32-p272:64:64-i64:64-i128:128-f80:128-n8:16:32:64-S128"
target triple = "x86_64-pc-linux-gnu"

%struct.strview_t = type { ptr, i64 }

; Function Attrs: inlinehint nounwind uwtable
define internal i32 @strview_cmp(ptr %0, i64 %1, ptr %2, i64 %3) #8 {
  %5 = alloca i32, align 4
  %6 = alloca %struct.strview_t, align 8
  %7 = alloca %struct.strview_t, align 8
  %8 = alloca i64, align 8
  %9 = alloca i32, align 4
  %10 = alloca i32, align 4
  %11 = getelementptr inbounds nuw { ptr, i64 }, ptr %6, i32 0, i32 0
  store ptr %0, ptr %11, align 8
  %12 = getelementptr inbounds nuw { ptr, i64 }, ptr %6, i32 0, i32 1
  store i64 %1, ptr %12, align 8
  %13 = getelementptr inbounds nuw { ptr, i64 }, ptr %7, i32 0, i32 0
  store ptr %2, ptr %13, align 8
  %14 = getelementptr inbounds nuw { ptr, i64 }, ptr %7, i32 0, i32 1
  store i64 %3, ptr %14, align 8
  call void @llvm.lifetime.start.p0(i64 8, ptr %8) #15
  %15 = getelementptr inbounds nuw %struct.strview_t, ptr %6, i32 0, i32 1
  %16 = load i64, ptr %15, align 8, !tbaa !137
  %17 = getelementptr inbounds nuw %struct.strview_t, ptr %7, i32 0, i32 1
  %18 = load i64, ptr %17, align 8, !tbaa !137
  %19 = icmp ugt i64 %16, %18
  br i1 %19, label %20, label %23

20:                                               ; preds = %4
  %21 = getelementptr inbounds nuw %struct.strview_t, ptr %7, i32 0, i32 1
  %22 = load i64, ptr %21, align 8, !tbaa !137
  br label %26

23:                                               ; preds = %4
  %24 = getelementptr inbounds nuw %struct.strview_t, ptr %6, i32 0, i32 1
  %25 = load i64, ptr %24, align 8, !tbaa !137
  br label %26

26:                                               ; preds = %23, %20
  %27 = phi i64 [ %22, %20 ], [ %25, %23 ]
  store i64 %27, ptr %8, align 8, !tbaa !45
  call void @llvm.lifetime.start.p0(i64 4, ptr %9) #15
  %28 = getelementptr inbounds nuw %struct.strview_t, ptr %6, i32 0, i32 0
  %29 = load ptr, ptr %28, align 8, !tbaa !135
  %30 = getelementptr inbounds nuw %struct.strview_t, ptr %7, i32 0, i32 0
  %31 = load ptr, ptr %30, align 8, !tbaa !135
  %32 = load i64, ptr %8, align 8, !tbaa !45
  %33 = call i32 @strncmp(ptr noundef %29, ptr noundef %31, i64 noundef %32) #18
  store i32 %33, ptr %9, align 4, !tbaa !38
  %34 = load i32, ptr %9, align 4, !tbaa !38
  %35 = icmp ne i32 %34, 0
  br i1 %35, label %36, label %38

36:                                               ; preds = %26
  %37 = load i32, ptr %9, align 4, !tbaa !38
  store i32 %37, ptr %5, align 4
  store i32 1, ptr %10, align 4
  br label %53

38:                                               ; preds = %26
  %39 = getelementptr inbounds nuw %struct.strview_t, ptr %6, i32 0, i32 1
  %40 = load i64, ptr %39, align 8, !tbaa !137
  %41 = getelementptr inbounds nuw %struct.strview_t, ptr %7, i32 0, i32 1
  %42 = load i64, ptr %41, align 8, !tbaa !137
  %43 = icmp ugt i64 %40, %42
  br i1 %43, label %44, label %45

44:                                               ; preds = %38
  store i32 1, ptr %5, align 4
  store i32 1, ptr %10, align 4
  br label %53

45:                                               ; preds = %38
  %46 = getelementptr inbounds nuw %struct.strview_t, ptr %6, i32 0, i32 1
  %47 = load i64, ptr %46, align 8, !tbaa !137
  %48 = getelementptr inbounds nuw %struct.strview_t, ptr %7, i32 0, i32 1
  %49 = load i64, ptr %48, align 8, !tbaa !137
  %50 = icmp ult i64 %47, %49
  br i1 %50, label %51, label %52

51:                                               ; preds = %45
  store i32 -1, ptr %5, align 4
  store i32 1, ptr %10, align 4
  br label %53

52:                                               ; preds = %45
  store i32 0, ptr %5, align 4
  store i32 1, ptr %10, align 4
  br label %53

53:                                               ; preds = %52, %51, %44, %36
  call void @llvm.lifetime.end.p0(i64 4, ptr %9) #15
  call void @llvm.lifetime.end.p0(i64 8, ptr %8) #15
  %54 = load i32, ptr %5, align 4
  ret i32 %54
}

; Function Attrs: inlinehint nounwind uwtable
define internal zeroext i1 @strview_eq(ptr %0, i64 %1, ptr %2, i64 %3) #8 {
  %5 = alloca %struct.strview_t, align 8
  %6 = alloca %struct.strview_t, align 8
  %7 = getelementptr inbounds nuw { ptr, i64 }, ptr %5, i32 0, i32 0
  store ptr %0, ptr %7, align 8
  %8 = getelementptr inbounds nuw { ptr, i64 }, ptr %5, i32 0, i32 1
  store i64 %1, ptr %8, align 8
  %9 = getelementptr inbounds nuw { ptr, i64 }, ptr %6, i32 0, i32 0
  store ptr %2, ptr %9, align 8
  %10 = getelementptr inbounds nuw { ptr, i64 }, ptr %6, i32 0, i32 1
  store i64 %3, ptr %10, align 8
  %11 = getelementptr inbounds nuw { ptr, i64 }, ptr %5, i32 0, i32 0
  %12 = load ptr, ptr %11, align 8
  %13 = getelementptr inbounds nuw { ptr, i64 }, ptr %5, i32 0, i32 1
  %14 = load i64, ptr %13, align 8
  %15 = getelementptr inbounds nuw { ptr, i64 }, ptr %6, i32 0, i32 0
  %16 = load ptr, ptr %15, align 8
  %17 = getelementptr inbounds nuw { ptr, i64 }, ptr %6, i32 0, i32 1
  %18 = load i64, ptr %17, align 8
  %19 = call i32 @strview_cmp(ptr %12, i64 %14, ptr %16, i64 %18)
  %20 = icmp eq i32 %19, 0
  ret i1 %20
}

; Function Attrs: inlinehint nounwind uwtable
define internal { ptr, i64 } @strview(ptr noundef %0, i8 noundef signext %1) #8 {
  %3 = alloca %struct.strview_t, align 8
  %4 = alloca ptr, align 8
  %5 = alloca i8, align 1
  %6 = alloca ptr, align 8
  %7 = alloca i32, align 4
  store ptr %0, ptr %4, align 8, !tbaa !42
  store i8 %1, ptr %5, align 1, !tbaa !11
  call void @llvm.lifetime.start.p0(i64 8, ptr %6) #15
  %8 = load ptr, ptr %4, align 8, !tbaa !42
  %9 = load i8, ptr %5, align 1, !tbaa !11
  %10 = sext i8 %9 to i32
  %11 = call ptr @strchr(ptr noundef %8, i32 noundef %10) #18
  store ptr %11, ptr %6, align 8, !tbaa !42
  %12 = load ptr, ptr %6, align 8, !tbaa !42
  %13 = icmp ne ptr %12, null
  br i1 %13, label %14, label %23

14:                                               ; preds = %2
  %15 = getelementptr inbounds nuw %struct.strview_t, ptr %3, i32 0, i32 0
  %16 = load ptr, ptr %4, align 8, !tbaa !42
  store ptr %16, ptr %15, align 8, !tbaa !135
  %17 = getelementptr inbounds nuw %struct.strview_t, ptr %3, i32 0, i32 1
  %18 = load ptr, ptr %6, align 8, !tbaa !42
  %19 = load ptr, ptr %4, align 8, !tbaa !42
  %20 = ptrtoint ptr %18 to i64
  %21 = ptrtoint ptr %19 to i64
  %22 = sub i64 %20, %21
  store i64 %22, ptr %17, align 8, !tbaa !137
  store i32 1, ptr %7, align 4
  br label %29

23:                                               ; preds = %2
  %24 = getelementptr inbounds nuw %struct.strview_t, ptr %3, i32 0, i32 0
  %25 = load ptr, ptr %4, align 8, !tbaa !42
  store ptr %25, ptr %24, align 8, !tbaa !135
  %26 = getelementptr inbounds nuw %struct.strview_t, ptr %3, i32 0, i32 1
  %27 = load ptr, ptr %4, align 8, !tbaa !42
  %28 = call i64 @strlen(ptr noundef %27) #18
  store i64 %28, ptr %26, align 8, !tbaa !137
  store i32 1, ptr %7, align 4
  br label %29

29:                                               ; preds = %23, %14
  call void @llvm.lifetime.end.p0(i64 8, ptr %6) #15
  %30 = load { ptr, i64 }, ptr %3, align 8
  ret { ptr, i64 } %30
}

; Function Attrs: inlinehint nounwind uwtable
define internal zeroext i1 @strview_str_eq(ptr %0, i64 %1, ptr noundef %2) #8 {
  %4 = alloca %struct.strview_t, align 8
  %5 = alloca ptr, align 8
  %6 = alloca %struct.strview_t, align 8
  %7 = getelementptr inbounds nuw { ptr, i64 }, ptr %4, i32 0, i32 0
  store ptr %0, ptr %7, align 8
  %8 = getelementptr inbounds nuw { ptr, i64 }, ptr %4, i32 0, i32 1
  store i64 %1, ptr %8, align 8
  store ptr %2, ptr %5, align 8, !tbaa !42
  %9 = load ptr, ptr %5, align 8, !tbaa !42
  %10 = call { ptr, i64 } @strview(ptr noundef %9, i8 noundef signext 0)
  %11 = getelementptr inbounds nuw { ptr, i64 }, ptr %6, i32 0, i32 0
  %12 = extractvalue { ptr, i64 } %10, 0
  store ptr %12, ptr %11, align 8
  %13 = getelementptr inbounds nuw { ptr, i64 }, ptr %6, i32 0, i32 1
  %14 = extractvalue { ptr, i64 } %10, 1
  store i64 %14, ptr %13, align 8
  %15 = getelementptr inbounds nuw { ptr, i64 }, ptr %4, i32 0, i32 0
  %16 = load ptr, ptr %15, align 8
  %17 = getelementptr inbounds nuw { ptr, i64 }, ptr %4, i32 0, i32 1
  %18 = load i64, ptr %17, align 8
  %19 = getelementptr inbounds nuw { ptr, i64 }, ptr %6, i32 0, i32 0
  %20 = load ptr, ptr %19, align 8
  %21 = getelementptr inbounds nuw { ptr, i64 }, ptr %6, i32 0, i32 1
  %22 = load i64, ptr %21, align 8
  %23 = call zeroext i1 @strview_eq(ptr %16, i64 %18, ptr %20, i64 %22)
  ret i1 %23
}