; Function Attrs: inlinehint mustprogress nofree nounwind willreturn memory(argmem: read) uwtable
define internal fastcc zeroext i1 @strview_str_eq(ptr nonnull readonly captures(none) %0, i64 range(i64 0, -9223372036854775808) %1, ptr noundef readonly captures(none) %2) unnamed_addr #18 {
  %strlen.i = tail call i64 @strlen(ptr nonnull dereferenceable(1) %2)
  %4 = tail call i64 @llvm.umin.i64(i64 range(i64 0, -9223372036854775808) %1, i64 %strlen.i)
  %5 = tail call i32 @strncmp(ptr noundef nonnull readonly %0, ptr noundef nonnull readonly %2, i64 noundef %4) #30
  %.not.i.i = icmp eq i32 %5, 0
  %6 = icmp eq i64 %1, %strlen.i
  %spec.select.i = and i1 %6, %.not.i.i
  ret i1 %spec.select.i
}